; Function Attrs: mustprogress uwtable
define internal void @_ZL26llama_sampler_chain_acceptP13llama_sampleri(ptr noundef readonly captures(none) %0, i32 noundef %1) #0 personality ptr @__gxx_personality_v0 {
  %3 = alloca %struct.time_meas, align 8
  %4 = getelementptr inbounds nuw i8, ptr %0, i64 8
  %5 = load ptr, ptr %4, align 8, !tbaa !9
  call void @llvm.lifetime.start.p0(i64 16, ptr nonnull %3) #33
  %6 = getelementptr inbounds nuw i8, ptr %5, i64 32
  %7 = load i8, ptr %5, align 8, !tbaa !208, !range !50, !noundef !51
  %8 = trunc nuw i8 %7 to i1
  call void @_ZN9time_measC1ERlb(ptr noundef nonnull align 8 dereferenceable(16) %3, ptr noundef nonnull align 8 dereferenceable(8) %6, i1 noundef zeroext %8)
  %9 = getelementptr inbounds nuw i8, ptr %5, i64 8
  %10 = load ptr, ptr %9, align 8, !tbaa !193
  %11 = getelementptr inbounds nuw i8, ptr %5, i64 16
  %12 = load ptr, ptr %11, align 8, !tbaa !193
  %.not13 = icmp eq ptr %10, %12
  br i1 %.not13, label %._crit_edge, label %.lr.ph

._crit_edge:                                      ; preds = %llama_sampler_accept.exit, %2
  %13 = getelementptr inbounds nuw i8, ptr %5, i64 40
  %14 = load i32, ptr %13, align 8, !tbaa !207
  %15 = add nsw i32 %14, 1
  store i32 %15, ptr %13, align 8, !tbaa !207
  call void @_ZN9time_measD1Ev(ptr noundef nonnull align 8 dereferenceable(16) %3) #33
  call void @llvm.lifetime.end.p0(i64 16, ptr nonnull %3) #33
  ret void

.lr.ph:                                           ; preds = %2, %llama_sampler_accept.exit
  %.sroa.010.014 = phi ptr [ %21, %llama_sampler_accept.exit ], [ %10, %2 ]
  %16 = load ptr, ptr %.sroa.010.014, align 8, !tbaa !39
  %17 = load ptr, ptr %16, align 8, !tbaa !3
  %18 = getelementptr inbounds nuw i8, ptr %17, i64 8
  %19 = load ptr, ptr %18, align 8, !tbaa !12
  %.not.i = icmp eq ptr %19, null
  br i1 %.not.i, label %llama_sampler_accept.exit, label %20

20:                                               ; preds = %.lr.ph
  invoke void %19(ptr noundef nonnull %16, i32 noundef %1)
          to label %llama_sampler_accept.exit unwind label %22

llama_sampler_accept.exit:                        ; preds = %.lr.ph, %20
  %21 = getelementptr inbounds nuw i8, ptr %.sroa.010.014, i64 8
  %.not = icmp eq ptr %21, %12
  br i1 %.not, label %._crit_edge, label %.lr.ph

22:                                               ; preds = %20
  %23 = landingpad { ptr, i32 }
          cleanup
  call void @_ZN9time_measD1Ev(ptr noundef nonnull align 8 dereferenceable(16) %3) #33
  call void @llvm.lifetime.end.p0(i64 16, ptr nonnull %3) #33
  resume { ptr, i32 } %23
}